target datalayout = "e-m:e-p270:32:32-p271:32:32-p272:64:64-i64:64-i128:128-f80:128-n8:16:32:64-S128"
target triple = "x86_64-pc-linux-gnu"

@alsa_snd_pcm_hw_params_set_rate_near = internal global ptr null, align 8
@alsa_snd_pcm_hw_params_get_rate_min = internal global ptr null, align 8
@alsa_snd_pcm_hw_params_get_rate_max = internal global ptr null, align 8
@alsa_snd_strerror = internal global ptr null, align 8
@paUnixMainThread = external global i64, align 8
@.str.85 = private unnamed_addr constant [230 x i8] c"Expression 'alsa_snd_pcm_hw_params_get_rate_min( hwParams, &_min, &_dir )' failed in 'generated/home/dtcxzyw/WorkSpace/Projects/compilers/llvm-opt-benchmark/bench/portaudio/portaudio/src/hostapi/alsa/pa_linux_alsa.c', line: 3258\0A\00", align 1
@.str.86 = private unnamed_addr constant [230 x i8] c"Expression 'alsa_snd_pcm_hw_params_get_rate_max( hwParams, &_max, &_dir )' failed in 'generated/home/dtcxzyw/WorkSpace/Projects/compilers/llvm-opt-benchmark/bench/portaudio/portaudio/src/hostapi/alsa/pa_linux_alsa.c', line: 3260\0A\00", align 1

; Function Attrs: inlinehint nounwind willreturn memory(none) uwtable
define available_externally i32 @pthread_equal(i64 noundef %0, i64 noundef %1) #8 {
  %3 = alloca i64, align 8
  %4 = alloca i64, align 8
  store i64 %0, ptr %3, align 8, !tbaa !37
  store i64 %1, ptr %4, align 8, !tbaa !37
  %5 = load i64, ptr %3, align 8, !tbaa !37
  %6 = load i64, ptr %4, align 8, !tbaa !37
  %7 = icmp eq i64 %5, %6
  %8 = zext i1 %7 to i32
  ret i32 %8
}

; Function Attrs: nounwind uwtable
define internal i32 @SetApproximateSampleRate(ptr noundef %0, ptr noundef %1, double noundef %2) #0 {
  %4 = alloca i32, align 4
  %5 = alloca ptr, align 8
  %6 = alloca ptr, align 8
  %7 = alloca double, align 8
  %8 = alloca i32, align 4
  %9 = alloca i32, align 4
  %10 = alloca i32, align 4
  %11 = alloca i32, align 4
  %12 = alloca i32, align 4
  %13 = alloca i32, align 4
  %14 = alloca i32, align 4
  %15 = alloca i32, align 4
  %16 = alloca i32, align 4
  %17 = alloca i32, align 4
  %18 = alloca i32, align 4
  store ptr %0, ptr %5, align 8, !tbaa !102
  store ptr %1, ptr %6, align 8, !tbaa !157
  store double %2, ptr %7, align 8, !tbaa !35
  call void @llvm.lifetime.start.p0(i64 4, ptr %8) #17
  store i32 0, ptr %8, align 4, !tbaa !8
  call void @llvm.lifetime.start.p0(i64 4, ptr %9) #17
  call void @llvm.lifetime.start.p0(i64 4, ptr %10) #17
  call void @llvm.lifetime.start.p0(i64 4, ptr %11) #17
  %19 = load double, ptr %7, align 8, !tbaa !35
  %20 = fptoui double %19 to i32
  store i32 %20, ptr %10, align 4, !tbaa !8
  store i32 %20, ptr %9, align 4, !tbaa !8
  br label %21

21:                                               ; preds = %3
  call void @llvm.lifetime.start.p0(i64 4, ptr %12) #17
  %22 = load ptr, ptr @alsa_snd_pcm_hw_params_set_rate_near, align 8, !tbaa !32
  %23 = load ptr, ptr %5, align 8, !tbaa !102
  %24 = load ptr, ptr %6, align 8, !tbaa !157
  %25 = call i32 %22(ptr noundef %23, ptr noundef %24, ptr noundef %10, ptr noundef null)
  store i32 %25, ptr %12, align 4, !tbaa !8
  %26 = icmp slt i32 %25, 0
  %27 = zext i1 %26 to i32
  %28 = sext i32 %27 to i64
  %29 = call i64 @llvm.expect.i64(i64 %28, i64 0)
  %30 = icmp ne i64 %29, 0
  br i1 %30, label %31, label %43

31:                                               ; preds = %21
  %32 = call i64 @pthread_self() #20
  %33 = load i64, ptr @paUnixMainThread, align 8, !tbaa !37
  %34 = call i32 @pthread_equal(i64 noundef %32, i64 noundef %33) #20
  %35 = icmp ne i32 %34, 0
  br i1 %35, label %36, label %42

36:                                               ; preds = %31
  %37 = load i32, ptr %12, align 4, !tbaa !8
  %38 = sext i32 %37 to i64
  %39 = load ptr, ptr @alsa_snd_strerror, align 8, !tbaa !32
  %40 = load i32, ptr %12, align 4, !tbaa !8
  %41 = call ptr %39(i32 noundef %40)
  call void @PaUtil_SetLastHostErrorInfo(i32 noundef 8, i64 noundef %38, ptr noundef %41)
  br label %42

42:                                               ; preds = %36, %31
  call void (ptr, ...) @PaUtil_DebugPrint(ptr noundef @.str.84)
  store i32 -9999, ptr %8, align 4, !tbaa !8
  store i32 4, ptr %13, align 4
  br label %44

43:                                               ; preds = %21
  store i32 0, ptr %13, align 4
  br label %44

44:                                               ; preds = %42, %43
  call void @llvm.lifetime.end.p0(i64 4, ptr %12) #17
  %45 = load i32, ptr %13, align 4
  switch i32 %45, label %122 [
    i32 0, label %46
    i32 4, label %64
  ]

46:                                               ; preds = %44
  br label %47

47:                                               ; preds = %46
  br label %48

48:                                               ; preds = %47
  %49 = load i32, ptr %10, align 4, !tbaa !8
  %50 = load i32, ptr %9, align 4, !tbaa !8
  %51 = sub nsw i32 %49, %50
  %52 = call i32 @llvm.abs.i32(i32 %51, i1 true)
  store i32 %52, ptr %11, align 4, !tbaa !8
  %53 = load i32, ptr %11, align 4, !tbaa !8
  %54 = icmp ugt i32 %53, 0
  br i1 %54, label %55, label %61

55:                                               ; preds = %48
  %56 = load i32, ptr %11, align 4, !tbaa !8
  %57 = mul i32 %56, 100
  %58 = load i32, ptr %9, align 4, !tbaa !8
  %59 = icmp ugt i32 %57, %58
  br i1 %59, label %60, label %61

60:                                               ; preds = %55
  store i32 -9997, ptr %8, align 4, !tbaa !8
  br label %61

61:                                               ; preds = %60, %55, %48
  br label %62

62:                                               ; preds = %121, %61
  %63 = load i32, ptr %8, align 4, !tbaa !8
  store i32 %63, ptr %4, align 4
  store i32 1, ptr %13, align 4
  br label %122

64:                                               ; preds = %119, %44
  call void @llvm.lifetime.start.p0(i64 4, ptr %14) #17
  store i32 0, ptr %14, align 4, !tbaa !8
  call void @llvm.lifetime.start.p0(i64 4, ptr %15) #17
  store i32 0, ptr %15, align 4, !tbaa !8
  call void @llvm.lifetime.start.p0(i64 4, ptr %16) #17
  store i32 0, ptr %16, align 4, !tbaa !8
  br label %65

65:                                               ; preds = %64
  call void @llvm.lifetime.start.p0(i64 4, ptr %17) #17
  %66 = load ptr, ptr @alsa_snd_pcm_hw_params_get_rate_min, align 8, !tbaa !32
  %67 = load ptr, ptr %6, align 8, !tbaa !157
  %68 = call i32 %66(ptr noundef %67, ptr noundef %14, ptr noundef %16)
  store i32 %68, ptr %17, align 4, !tbaa !8
  %69 = icmp slt i32 %68, 0
  %70 = zext i1 %69 to i32
  %71 = sext i32 %70 to i64
  %72 = call i64 @llvm.expect.i64(i64 %71, i64 0)
  %73 = icmp ne i64 %72, 0
  br i1 %73, label %74, label %86

74:                                               ; preds = %65
  %75 = call i64 @pthread_self() #20
  %76 = load i64, ptr @paUnixMainThread, align 8, !tbaa !37
  %77 = call i32 @pthread_equal(i64 noundef %75, i64 noundef %76) #20
  %78 = icmp ne i32 %77, 0
  br i1 %78, label %79, label %85

79:                                               ; preds = %74
  %80 = load i32, ptr %17, align 4, !tbaa !8
  %81 = sext i32 %80 to i64
  %82 = load ptr, ptr @alsa_snd_strerror, align 8, !tbaa !32
  %83 = load i32, ptr %17, align 4, !tbaa !8
  %84 = call ptr %82(i32 noundef %83)
  call void @PaUtil_SetLastHostErrorInfo(i32 noundef 8, i64 noundef %81, ptr noundef %84)
  br label %85

85:                                               ; preds = %79, %74
  call void (ptr, ...) @PaUtil_DebugPrint(ptr noundef @.str.85)
  store i32 -9999, ptr %8, align 4, !tbaa !8
  store i32 4, ptr %13, align 4
  br label %87

86:                                               ; preds = %65
  store i32 0, ptr %13, align 4
  br label %87

87:                                               ; preds = %86, %85
  call void @llvm.lifetime.end.p0(i64 4, ptr %17) #17
  %88 = load i32, ptr %13, align 4
  switch i32 %88, label %119 [
    i32 0, label %89
  ]

89:                                               ; preds = %87
  br label %90

90:                                               ; preds = %89
  br label %91

91:                                               ; preds = %90
  store i32 0, ptr %16, align 4, !tbaa !8
  br label %92

92:                                               ; preds = %91
  call void @llvm.lifetime.start.p0(i64 4, ptr %18) #17
  %93 = load ptr, ptr @alsa_snd_pcm_hw_params_get_rate_max, align 8, !tbaa !32
  %94 = load ptr, ptr %6, align 8, !tbaa !157
  %95 = call i32 %93(ptr noundef %94, ptr noundef %15, ptr noundef %16)
  store i32 %95, ptr %18, align 4, !tbaa !8
  %96 = icmp slt i32 %95, 0
  %97 = zext i1 %96 to i32
  %98 = sext i32 %97 to i64
  %99 = call i64 @llvm.expect.i64(i64 %98, i64 0)
  %100 = icmp ne i64 %99, 0
  br i1 %100, label %101, label %113

101:                                              ; preds = %92
  %102 = call i64 @pthread_self() #20
  %103 = load i64, ptr @paUnixMainThread, align 8, !tbaa !37
  %104 = call i32 @pthread_equal(i64 noundef %102, i64 noundef %103) #20
  %105 = icmp ne i32 %104, 0
  br i1 %105, label %106, label %112

106:                                              ; preds = %101
  %107 = load i32, ptr %18, align 4, !tbaa !8
  %108 = sext i32 %107 to i64
  %109 = load ptr, ptr @alsa_snd_strerror, align 8, !tbaa !32
  %110 = load i32, ptr %18, align 4, !tbaa !8
  %111 = call ptr %109(i32 noundef %110)
  call void @PaUtil_SetLastHostErrorInfo(i32 noundef 8, i64 noundef %108, ptr noundef %111)
  br label %112

112:                                              ; preds = %106, %101
  call void (ptr, ...) @PaUtil_DebugPrint(ptr noundef @.str.86)
  store i32 -9999, ptr %8, align 4, !tbaa !8
  store i32 4, ptr %13, align 4
  br label %114

113:                                              ; preds = %92
  store i32 0, ptr %13, align 4
  br label %114

114:                                              ; preds = %113, %112
  call void @llvm.lifetime.end.p0(i64 4, ptr %18) #17
  %115 = load i32, ptr %13, align 4
  switch i32 %115, label %119 [
    i32 0, label %116
  ]

116:                                              ; preds = %114
  br label %117

117:                                              ; preds = %116
  br label %118

118:                                              ; preds = %117
  store i32 0, ptr %13, align 4
  br label %119

119:                                              ; preds = %118, %114, %87
  call void @llvm.lifetime.end.p0(i64 4, ptr %16) #17
  call void @llvm.lifetime.end.p0(i64 4, ptr %15) #17
  call void @llvm.lifetime.end.p0(i64 4, ptr %14) #17
  %120 = load i32, ptr %13, align 4
  switch i32 %120, label %124 [
    i32 0, label %121
    i32 4, label %64
  ]

121:                                              ; preds = %119
  br label %62

122:                                              ; preds = %62, %44
  call void @llvm.lifetime.end.p0(i64 4, ptr %11) #17
  call void @llvm.lifetime.end.p0(i64 4, ptr %10) #17
  call void @llvm.lifetime.end.p0(i64 4, ptr %9) #17
  call void @llvm.lifetime.end.p0(i64 4, ptr %8) #17
  %123 = load i32, ptr %4, align 4
  ret i32 %123

124:                                              ; preds = %119
  unreachable
}