; Function Attrs: nounwind uwtable
define internal fastcc range(i32 -9999, 1) i32 @SetApproximateSampleRate(ptr noundef %0, ptr noundef nonnull %1, double noundef %2) unnamed_addr #2 {
  %4 = alloca i32, align 4
  %5 = alloca i32, align 4
  %6 = alloca i32, align 4
  %7 = alloca i32, align 4
  call void @llvm.lifetime.start.p0(i64 4, ptr nonnull %4) #25
  %8 = fptoui double %2 to i32
  store i32 %8, ptr %4, align 4, !tbaa !3
  %9 = call i32 @snd_pcm_hw_params_set_rate_near(ptr noundef %0, ptr noundef nonnull %1, ptr noundef nonnull %4, ptr noundef null) #25, !callees !173
  %10 = icmp slt i32 %9, 0
  br i1 %10, label %11, label %18, !prof !9

11:                                               ; preds = %3
  %12 = tail call i64 @pthread_self() #28
  %13 = load i64, ptr @paUnixMainThread, align 8, !tbaa !108
  %.not = icmp eq i64 %12, %13
  br i1 %.not, label %14, label %17

14:                                               ; preds = %11
  %15 = sext i32 %9 to i64
  %16 = call ptr @snd_strerror(i32 noundef %9) #25, !callees !109
  call void @PaUtil_SetLastHostErrorInfo(i32 noundef 8, i64 noundef %15, ptr noundef %16) #25
  br label %17

17:                                               ; preds = %11, %14
  call void (ptr, ...) @PaUtil_DebugPrint(ptr noundef nonnull @.str.84) #25
  br label %25

18:                                               ; preds = %3
  %19 = load i32, ptr %4, align 4, !tbaa !3
  %.not32 = icmp eq i32 %19, %8
  br i1 %.not32, label %38, label %20

20:                                               ; preds = %18
  %21 = sub nsw i32 %19, %8
  %22 = call i32 @llvm.abs.i32(i32 %21, i1 true)
  %23 = mul i32 %22, 100
  %24 = icmp ugt i32 %23, %8
  %spec.select = select i1 %24, i32 -9997, i32 0
  br label %38

25:                                               ; preds = %37, %17
  call void @llvm.lifetime.start.p0(i64 4, ptr nonnull %5) #25
  store i32 0, ptr %5, align 4, !tbaa !3
  call void @llvm.lifetime.start.p0(i64 4, ptr nonnull %6) #25
  store i32 0, ptr %6, align 4, !tbaa !3
  call void @llvm.lifetime.start.p0(i64 4, ptr nonnull %7) #25
  store i32 0, ptr %7, align 4, !tbaa !3
  %26 = call i32 @snd_pcm_hw_params_get_rate_min(ptr noundef nonnull %1, ptr noundef nonnull %5, ptr noundef nonnull %7) #25, !callees !180
  %27 = icmp sgt i32 %26, -1
  br i1 %27, label %30, label %28, !prof !35

28:                                               ; preds = %25
  %29 = load i64, ptr @paUnixMainThread, align 8, !tbaa !108
  %.not48 = icmp eq i64 %12, %29
  br i1 %.not48, label %.sink.split, label %37

30:                                               ; preds = %25
  store i32 0, ptr %7, align 4, !tbaa !3
  %31 = call i32 @snd_pcm_hw_params_get_rate_max(ptr noundef nonnull %1, ptr noundef nonnull %6, ptr noundef nonnull %7) #25, !callees !181
  %32 = icmp slt i32 %31, 0
  br i1 %32, label %33, label %.thread44, !prof !9

.thread44:                                        ; preds = %30
  call void @llvm.lifetime.end.p0(i64 4, ptr nonnull %7) #25
  call void @llvm.lifetime.end.p0(i64 4, ptr nonnull %6) #25
  call void @llvm.lifetime.end.p0(i64 4, ptr nonnull %5) #25
  br label %38

33:                                               ; preds = %30
  %34 = load i64, ptr @paUnixMainThread, align 8, !tbaa !108
  %.not49 = icmp eq i64 %12, %34
  br i1 %.not49, label %.sink.split, label %37

.sink.split:                                      ; preds = %33, %28
  %.sink52 = phi i32 [ %26, %28 ], [ %31, %33 ]
  %.str.85.sink.ph = phi ptr [ @.str.85, %28 ], [ @.str.86, %33 ]
  %35 = sext i32 %.sink52 to i64
  %36 = call ptr @snd_strerror(i32 noundef %.sink52) #25
  call void @PaUtil_SetLastHostErrorInfo(i32 noundef 8, i64 noundef %35, ptr noundef %36) #25
  br label %37

37:                                               ; preds = %.sink.split, %33, %28
  %.str.85.sink = phi ptr [ @.str.85, %28 ], [ @.str.86, %33 ], [ %.str.85.sink.ph, %.sink.split ]
  call void (ptr, ...) @PaUtil_DebugPrint(ptr noundef nonnull %.str.85.sink) #25
  call void @llvm.lifetime.end.p0(i64 4, ptr nonnull %7) #25
  call void @llvm.lifetime.end.p0(i64 4, ptr nonnull %6) #25
  call void @llvm.lifetime.end.p0(i64 4, ptr nonnull %5) #25
  br label %25

38:                                               ; preds = %.thread44, %20, %18
  %.2 = phi i32 [ 0, %18 ], [ %spec.select, %20 ], [ -9999, %.thread44 ]
  call void @llvm.lifetime.end.p0(i64 4, ptr nonnull %4) #25
  ret i32 %.2
}